; Function Attrs: nofree norecurse nosync nounwind memory(read, argmem: readwrite, inaccessiblemem: none) uwtable
define dso_local void @nghttp2_bufs_seek_last_present(ptr noundef captures(none) %0) local_unnamed_addr #5 {
  %2 = getelementptr inbounds nuw i8, ptr %0, i64 8
  %.07 = load ptr, ptr %2, align 8, !tbaa !31
  %.not8 = icmp eq ptr %.07, null
  br i1 %.not8, label %._crit_edge, label %.lr.ph

.lr.ph:                                           ; preds = %1, %8
  %.09 = phi ptr [ %.0, %8 ], [ %.07, %1 ]
  %3 = getelementptr inbounds nuw i8, ptr %.09, i64 32
  %4 = load ptr, ptr %3, align 8, !tbaa !23
  %5 = getelementptr inbounds nuw i8, ptr %.09, i64 24
  %6 = load ptr, ptr %5, align 8, !tbaa !21
  %7 = icmp eq ptr %4, %6
  br i1 %7, label %._crit_edge, label %8

8:                                                ; preds = %.lr.ph
  store ptr %.09, ptr %2, align 8, !tbaa !20
  %.0 = load ptr, ptr %.09, align 8, !tbaa !31
  %.not = icmp eq ptr %.0, null
  br i1 %.not, label %._crit_edge, label %.lr.ph, !llvm.loop !36

._crit_edge:                                      ; preds = %.lr.ph, %8, %1
  ret void
}